target datalayout = "e-m:e-p270:32:32-p271:32:32-p272:64:64-i64:64-i128:128-f80:128-n8:16:32:64-S128"
target triple = "x86_64-pc-linux-gnu"

@.str.27 = private unnamed_addr constant [27 x i8] c"Invalid sCAL width ignored\00", align 1
@.str.28 = private unnamed_addr constant [28 x i8] c"Invalid sCAL height ignored\00", align 1

; Function Attrs: nounwind uwtable
define void @png_set_sCAL_fixed(ptr noalias noundef %0, ptr noalias noundef %1, i32 noundef %2, i32 noundef %3, i32 noundef %4) #0 {
  %6 = alloca ptr, align 8
  %7 = alloca ptr, align 8
  %8 = alloca i32, align 4
  %9 = alloca i32, align 4
  %10 = alloca i32, align 4
  %11 = alloca [18 x i8], align 16
  %12 = alloca [18 x i8], align 16
  store ptr %0, ptr %6, align 8
  store ptr %1, ptr %7, align 8
  store i32 %2, ptr %8, align 4
  store i32 %3, ptr %9, align 4
  store i32 %4, ptr %10, align 4
  %13 = load i32, ptr %9, align 4
  %14 = icmp sle i32 %13, 0
  br i1 %14, label %15, label %17

15:                                               ; preds = %5
  %16 = load ptr, ptr %6, align 8
  call void @png_warning(ptr noundef %16, ptr noundef @.str.27)
  br label %35

17:                                               ; preds = %5
  %18 = load i32, ptr %10, align 4
  %19 = icmp sle i32 %18, 0
  br i1 %19, label %20, label %22

20:                                               ; preds = %17
  %21 = load ptr, ptr %6, align 8
  call void @png_warning(ptr noundef %21, ptr noundef @.str.28)
  br label %34

22:                                               ; preds = %17
  %23 = load ptr, ptr %6, align 8
  %24 = getelementptr inbounds [18 x i8], ptr %11, i64 0, i64 0
  %25 = load i32, ptr %9, align 4
  call void @png_ascii_from_fixed(ptr noundef %23, ptr noundef %24, i64 noundef 18, i32 noundef %25)
  %26 = load ptr, ptr %6, align 8
  %27 = getelementptr inbounds [18 x i8], ptr %12, i64 0, i64 0
  %28 = load i32, ptr %10, align 4
  call void @png_ascii_from_fixed(ptr noundef %26, ptr noundef %27, i64 noundef 18, i32 noundef %28)
  %29 = load ptr, ptr %6, align 8
  %30 = load ptr, ptr %7, align 8
  %31 = load i32, ptr %8, align 4
  %32 = getelementptr inbounds [18 x i8], ptr %11, i64 0, i64 0
  %33 = getelementptr inbounds [18 x i8], ptr %12, i64 0, i64 0
  call void @png_set_sCAL_s(ptr noundef %29, ptr noundef %30, i32 noundef %31, ptr noundef %32, ptr noundef %33)
  br label %34

34:                                               ; preds = %22, %20
  br label %35

35:                                               ; preds = %34, %15
  ret void
}