; Function Attrs: nounwind uwtable
define void @png_set_sCAL_fixed(ptr noalias noundef %0, ptr noalias noundef %1, i32 noundef %2, i32 noundef %3, i32 noundef %4) local_unnamed_addr #2 {
  %6 = alloca [18 x i8], align 16
  %7 = alloca [18 x i8], align 16
  %8 = icmp slt i32 %3, 1
  br i1 %8, label %9, label %10

9:                                                ; preds = %5
  tail call void @png_warning(ptr noundef %0, ptr noundef nonnull @.str.27) #12
  br label %14

10:                                               ; preds = %5
  %11 = icmp slt i32 %4, 1
  br i1 %11, label %12, label %13

12:                                               ; preds = %10
  tail call void @png_warning(ptr noundef %0, ptr noundef nonnull @.str.28) #12
  br label %14

13:                                               ; preds = %10
  call void @png_ascii_from_fixed(ptr noundef %0, ptr noundef nonnull %6, i64 noundef 18, i32 noundef %3) #12
  call void @png_ascii_from_fixed(ptr noundef %0, ptr noundef nonnull %7, i64 noundef 18, i32 noundef %4) #12
  call void @png_set_sCAL_s(ptr noundef %0, ptr noundef %1, i32 noundef %2, ptr noundef nonnull %6, ptr noundef nonnull %7)
  br label %14

14:                                               ; preds = %12, %13, %9
  ret void
}